; Function Attrs: nounwind uwtable
define void @free_textspan(ptr noundef captures(address_is_null) %0, i64 noundef %1) local_unnamed_addr #0 {
  %.not = icmp eq ptr %0, null
  br i1 %.not, label %13, label %.preheader

.preheader:                                       ; preds = %2
  %.not19 = icmp eq i64 %1, 0
  br i1 %.not19, label %._crit_edge, label %.lr.ph

._crit_edge:                                      ; preds = %10, %.preheader
  tail call void @free(ptr noundef %0) #16
  br label %13

.lr.ph:                                           ; preds = %.preheader, %10
  %.018 = phi i64 [ %12, %10 ], [ 0, %.preheader ]
  %.01117 = phi ptr [ %11, %10 ], [ %0, %.preheader ]
  %3 = load ptr, ptr %.01117, align 8, !tbaa !21
  tail call void @free(ptr noundef %3) #16
  %4 = getelementptr inbounds nuw i8, ptr %.01117, i64 16
  %5 = load ptr, ptr %4, align 8, !tbaa !103
  %.not15 = icmp eq ptr %5, null
  br i1 %.not15, label %10, label %6

6:                                                ; preds = %.lr.ph
  %7 = getelementptr inbounds nuw i8, ptr %.01117, i64 24
  %8 = load ptr, ptr %7, align 8, !tbaa !104
  %.not16 = icmp eq ptr %8, null
  br i1 %.not16, label %10, label %9

9:                                                ; preds = %6
  tail call void %8(ptr noundef nonnull %5) #16
  br label %10

10:                                               ; preds = %9, %6, %.lr.ph
  %11 = getelementptr inbounds nuw i8, ptr %.01117, i64 72
  %12 = add nuw i64 %.018, 1
  %exitcond.not = icmp eq i64 %12, %1
  br i1 %exitcond.not, label %._crit_edge, label %.lr.ph, !llvm.loop !105

13:                                               ; preds = %2, %._crit_edge
  ret void
}